target datalayout = "e-m:e-p270:32:32-p271:32:32-p272:64:64-i64:64-i128:128-f80:128-n8:16:32:64-S128"
target triple = "x86_64-unknown-linux-gnu"

%struct.malloc_mutex_s = type { %union.anon }
%union.anon = type { %struct.anon }
%struct.anon = type { %struct.mutex_prof_data_t, %union.pthread_mutex_t, %struct.atomic_b_t }
%struct.mutex_prof_data_t = type { %struct.nstime_t, %struct.nstime_t, i64, i64, i32, %struct.atomic_u32_t, i64, ptr, i64 }
%struct.nstime_t = type { i64 }
%struct.atomic_u32_t = type { i32 }
%union.pthread_mutex_t = type { %struct.__pthread_mutex_s }
%struct.__pthread_mutex_s = type { i32, i32, i32, i32, i32, i16, i16, %struct.__pthread_internal_list }
%struct.__pthread_internal_list = type { ptr, ptr }
%struct.atomic_b_t = type { i8 }
%struct.tsd_s = type { i8, i8, i64, i64, i64, i64, i64, i64, i64, i64, i64, i64, i64, i64, ptr, i64, i64, i64, ptr, ptr, %struct.ticker_geom_s, i8, %struct.tsd_binshards_s, %struct.tsd_link_t, i8, %struct.peak_s, %struct.activity_callback_thunk_s, %struct.tcache_slow_s, %struct.rtree_ctx_s, %struct.atomic_u8_t, i64, i64, i64, i64, %struct.tcache_s, %struct.witness_tsd_s }
%struct.ticker_geom_s = type { i32, i32 }
%struct.tsd_binshards_s = type { [39 x i8] }
%struct.tsd_link_t = type { ptr, ptr }
%struct.peak_s = type { i64, i64 }
%struct.activity_callback_thunk_s = type { ptr, ptr }
%struct.tcache_slow_s = type { %struct.anon.3, %struct.cache_bin_array_descriptor_s, ptr, i32, [39 x i8], [39 x i8], [39 x i8], ptr, ptr }
%struct.anon.3 = type { ptr, ptr }
%struct.cache_bin_array_descriptor_s = type { %struct.anon.4, ptr }
%struct.anon.4 = type { ptr, ptr }
%struct.rtree_ctx_s = type { [16 x %struct.rtree_ctx_cache_elm_s], [8 x %struct.rtree_ctx_cache_elm_s] }
%struct.rtree_ctx_cache_elm_s = type { i64, ptr }
%struct.atomic_u8_t = type { i8 }
%struct.tcache_s = type { ptr, [76 x %struct.cache_bin_s] }
%struct.cache_bin_s = type { ptr, %struct.cache_bin_stats_s, i16, i16, i16 }
%struct.cache_bin_stats_s = type { i64 }
%struct.witness_tsd_s = type { %struct.witness_list_t, i8 }
%struct.witness_list_t = type { ptr }
%struct.ctl_stats_s = type { i64, i64, i64, i64, i64, i64, i64, %struct.background_thread_stats_s, [9 x %struct.mutex_prof_data_t] }
%struct.background_thread_stats_s = type { i64, i64, %struct.nstime_t, %struct.mutex_prof_data_t }

@ctl_mtx = internal global %struct.malloc_mutex_s zeroinitializer, align 8
@ctl_stats = internal global ptr null, align 8

; Function Attrs: nounwind uwtable
define internal void @witness_unlock(ptr noundef %witness_tsdn, ptr noundef %witness) #0 {
entry:
  %witness_tsdn.addr = alloca ptr, align 8
  %witness.addr = alloca ptr, align 8
  store ptr %witness_tsdn, ptr %witness_tsdn.addr, align 8
  store ptr %witness, ptr %witness.addr, align 8
  ret void
}

; Function Attrs: nounwind uwtable
define internal void @witness_lock(ptr noundef %witness_tsdn, ptr noundef %witness) #0 {
entry:
  %witness_tsdn.addr = alloca ptr, align 8
  %witness.addr = alloca ptr, align 8
  store ptr %witness_tsdn, ptr %witness_tsdn.addr, align 8
  store ptr %witness, ptr %witness.addr, align 8
  ret void
}

; Function Attrs: nounwind uwtable
define internal void @mutex_owner_stats_update(ptr noundef %tsdn, ptr noundef %mutex) #0 {
entry:
  %tsdn.addr = alloca ptr, align 8
  %mutex.addr = alloca ptr, align 8
  %data = alloca ptr, align 8
  store ptr %tsdn, ptr %tsdn.addr, align 8
  store ptr %mutex, ptr %mutex.addr, align 8
  %0 = load ptr, ptr %mutex.addr, align 8
  %1 = getelementptr inbounds %struct.malloc_mutex_s, ptr %0, i32 0, i32 0
  %prof_data = getelementptr inbounds %struct.anon, ptr %1, i32 0, i32 0
  store ptr %prof_data, ptr %data, align 8
  %2 = load ptr, ptr %data, align 8
  %n_lock_ops = getelementptr inbounds %struct.mutex_prof_data_t, ptr %2, i32 0, i32 8
  %3 = load i64, ptr %n_lock_ops, align 8
  %inc = add i64 %3, 1
  store i64 %inc, ptr %n_lock_ops, align 8
  %4 = load ptr, ptr %data, align 8
  %prev_owner = getelementptr inbounds %struct.mutex_prof_data_t, ptr %4, i32 0, i32 7
  %5 = load ptr, ptr %prev_owner, align 8
  %6 = load ptr, ptr %tsdn.addr, align 8
  %cmp = icmp ne ptr %5, %6
  br i1 %cmp, label %if.then, label %if.end

if.then:                                          ; preds = %entry
  %7 = load ptr, ptr %tsdn.addr, align 8
  %8 = load ptr, ptr %data, align 8
  %prev_owner1 = getelementptr inbounds %struct.mutex_prof_data_t, ptr %8, i32 0, i32 7
  store ptr %7, ptr %prev_owner1, align 8
  %9 = load ptr, ptr %data, align 8
  %n_owner_switches = getelementptr inbounds %struct.mutex_prof_data_t, ptr %9, i32 0, i32 6
  %10 = load i64, ptr %n_owner_switches, align 8
  %inc2 = add i64 %10, 1
  store i64 %inc2, ptr %n_owner_switches, align 8
  br label %if.end

if.end:                                           ; preds = %if.then, %entry
  ret void
}

; Function Attrs: nounwind uwtable
define internal zeroext i1 @malloc_mutex_trylock_final(ptr noundef %mutex) #0 {
entry:
  %mutex.addr = alloca ptr, align 8
  store ptr %mutex, ptr %mutex.addr, align 8
  %0 = load ptr, ptr %mutex.addr, align 8
  %1 = getelementptr inbounds %struct.malloc_mutex_s, ptr %0, i32 0, i32 0
  %lock = getelementptr inbounds %struct.anon, ptr %1, i32 0, i32 1
  %call = call i32 @pthread_mutex_trylock(ptr noundef %lock) #10
  %cmp = icmp ne i32 %call, 0
  ret i1 %cmp
}

; Function Attrs: nounwind uwtable
define internal void @witness_assert_not_owner(ptr noundef %witness_tsdn, ptr noundef %witness) #0 {
entry:
  %witness_tsdn.addr = alloca ptr, align 8
  %witness.addr = alloca ptr, align 8
  store ptr %witness_tsdn, ptr %witness_tsdn.addr, align 8
  store ptr %witness, ptr %witness.addr, align 8
  ret void
}

; Function Attrs: nounwind uwtable
define internal void @malloc_mutex_unlock(ptr noundef %tsdn, ptr noundef %mutex) #0 {
entry:
  %retval.i8 = alloca i32, align 4
  %mo.addr.i9 = alloca i32, align 4
  %tsd.addr.i7 = alloca ptr, align 8
  %tsd.addr.i5 = alloca ptr, align 8
  %tsd.addr.i = alloca ptr, align 8
  %state.i = alloca i8, align 1
  %tsdn.addr.i4 = alloca ptr, align 8
  %tsdn.addr.i3 = alloca ptr, align 8
  %a.addr.i = alloca ptr, align 8
  %val.addr.i = alloca i8, align 1
  %mo.addr.i = alloca i32, align 4
  %retval.i = alloca ptr, align 8
  %tsdn.addr.i = alloca ptr, align 8
  %tsd.i = alloca ptr, align 8
  %tsdn.addr = alloca ptr, align 8
  %mutex.addr = alloca ptr, align 8
  store ptr %tsdn, ptr %tsdn.addr, align 8
  store ptr %mutex, ptr %mutex.addr, align 8
  %0 = load ptr, ptr %mutex.addr, align 8
  %1 = getelementptr inbounds %struct.malloc_mutex_s, ptr %0, i32 0, i32 0
  %locked = getelementptr inbounds %struct.anon, ptr %1, i32 0, i32 2
  store ptr %locked, ptr %a.addr.i, align 8
  store i8 0, ptr %val.addr.i, align 1
  store i32 0, ptr %mo.addr.i, align 4
  %2 = load ptr, ptr %a.addr.i, align 8
  %3 = load i32, ptr %mo.addr.i, align 4
  store i32 %3, ptr %mo.addr.i9, align 4
  %4 = load i32, ptr %mo.addr.i9, align 4
  switch i32 %4, label %sw.epilog.i [
    i32 0, label %sw.bb.i
    i32 1, label %sw.bb1.i
    i32 2, label %sw.bb2.i
    i32 3, label %sw.bb3.i
    i32 4, label %sw.bb4.i
  ]

sw.bb.i:                                          ; preds = %entry
  store i32 0, ptr %retval.i8, align 4
  br label %atomic_enum_to_builtin.exit

sw.bb1.i:                                         ; preds = %entry
  store i32 2, ptr %retval.i8, align 4
  br label %atomic_enum_to_builtin.exit

sw.bb2.i:                                         ; preds = %entry
  store i32 3, ptr %retval.i8, align 4
  br label %atomic_enum_to_builtin.exit

sw.bb3.i:                                         ; preds = %entry
  store i32 4, ptr %retval.i8, align 4
  br label %atomic_enum_to_builtin.exit

sw.bb4.i:                                         ; preds = %entry
  store i32 5, ptr %retval.i8, align 4
  br label %atomic_enum_to_builtin.exit

sw.epilog.i:                                      ; preds = %entry
  unreachable

atomic_enum_to_builtin.exit:                      ; preds = %sw.bb4.i, %sw.bb3.i, %sw.bb2.i, %sw.bb1.i, %sw.bb.i
  %5 = load i32, ptr %retval.i8, align 4
  switch i32 %5, label %monotonic.i [
    i32 3, label %release.i
    i32 5, label %seqcst.i
  ]

monotonic.i:                                      ; preds = %atomic_enum_to_builtin.exit
  %6 = load i8, ptr %val.addr.i, align 1
  store atomic i8 %6, ptr %2 monotonic, align 1
  br label %atomic_store_b.exit

release.i:                                        ; preds = %atomic_enum_to_builtin.exit
  %7 = load i8, ptr %val.addr.i, align 1
  store atomic i8 %7, ptr %2 release, align 1
  br label %atomic_store_b.exit

seqcst.i:                                         ; preds = %atomic_enum_to_builtin.exit
  %8 = load i8, ptr %val.addr.i, align 1
  store atomic i8 %8, ptr %2 seq_cst, align 1
  br label %atomic_store_b.exit

atomic_store_b.exit:                              ; preds = %seqcst.i, %release.i, %monotonic.i
  %9 = load ptr, ptr %tsdn.addr, align 8
  store ptr %9, ptr %tsdn.addr.i, align 8
  %10 = load ptr, ptr %tsdn.addr.i, align 8
  store ptr %10, ptr %tsdn.addr.i3, align 8
  %11 = load ptr, ptr %tsdn.addr.i3, align 8
  %cmp.i = icmp eq ptr %11, null
  br i1 %cmp.i, label %if.then.i, label %if.end.i

if.then.i:                                        ; preds = %atomic_store_b.exit
  store ptr null, ptr %retval.i, align 8
  br label %tsdn_witness_tsdp_get.exit

if.end.i:                                         ; preds = %atomic_store_b.exit
  %12 = load ptr, ptr %tsdn.addr.i, align 8
  store ptr %12, ptr %tsdn.addr.i4, align 8
  %13 = load ptr, ptr %tsdn.addr.i4, align 8
  store ptr %13, ptr %tsd.i, align 8
  %14 = load ptr, ptr %tsd.i, align 8
  store ptr %14, ptr %tsd.addr.i, align 8
  %15 = load ptr, ptr %tsd.addr.i, align 8
  store ptr %15, ptr %tsd.addr.i5, align 8
  %16 = load ptr, ptr %tsd.addr.i5, align 8
  %state.i6 = getelementptr inbounds %struct.tsd_s, ptr %16, i32 0, i32 29
  %17 = load i8, ptr %state.i6, align 8
  store i8 %17, ptr %state.i, align 1
  %18 = load ptr, ptr %tsd.addr.i, align 8
  store ptr %18, ptr %tsd.addr.i7, align 8
  %19 = load ptr, ptr %tsd.addr.i7, align 8
  %cant_access_tsd_items_directly_use_a_getter_or_setter_witness_tsd.i = getelementptr inbounds %struct.tsd_s, ptr %19, i32 0, i32 35
  store ptr %cant_access_tsd_items_directly_use_a_getter_or_setter_witness_tsd.i, ptr %retval.i, align 8
  br label %tsdn_witness_tsdp_get.exit

tsdn_witness_tsdp_get.exit:                       ; preds = %if.end.i, %if.then.i
  %20 = load ptr, ptr %retval.i, align 8
  %21 = load ptr, ptr %mutex.addr, align 8
  %22 = getelementptr inbounds %struct.malloc_mutex_s, ptr %21, i32 0, i32 0
  call void @witness_unlock(ptr noundef %20, ptr noundef %22)
  %23 = load ptr, ptr %mutex.addr, align 8
  %24 = getelementptr inbounds %struct.malloc_mutex_s, ptr %23, i32 0, i32 0
  %lock = getelementptr inbounds %struct.anon, ptr %24, i32 0, i32 1
  %call1 = call i32 @pthread_mutex_unlock(ptr noundef %lock) #10
  ret void
}

; Function Attrs: nounwind uwtable
define internal void @malloc_mutex_lock(ptr noundef %tsdn, ptr noundef %mutex) #0 {
entry:
  %retval.i29 = alloca i32, align 4
  %mo.addr.i30 = alloca i32, align 4
  %tsd.addr.i27 = alloca ptr, align 8
  %tsd.addr.i26 = alloca ptr, align 8
  %tsd.addr.i24 = alloca ptr, align 8
  %tsd.addr.i22 = alloca ptr, align 8
  %tsd.addr.i18 = alloca ptr, align 8
  %state.i19 = alloca i8, align 1
  %tsd.addr.i = alloca ptr, align 8
  %state.i = alloca i8, align 1
  %tsdn.addr.i17 = alloca ptr, align 8
  %tsdn.addr.i16 = alloca ptr, align 8
  %tsdn.addr.i14 = alloca ptr, align 8
  %tsdn.addr.i13 = alloca ptr, align 8
  %a.addr.i = alloca ptr, align 8
  %val.addr.i = alloca i8, align 1
  %mo.addr.i = alloca i32, align 4
  %retval.i3 = alloca ptr, align 8
  %tsdn.addr.i4 = alloca ptr, align 8
  %tsd.i5 = alloca ptr, align 8
  %retval.i = alloca ptr, align 8
  %tsdn.addr.i = alloca ptr, align 8
  %tsd.i = alloca ptr, align 8
  %tsdn.addr = alloca ptr, align 8
  %mutex.addr = alloca ptr, align 8
  store ptr %tsdn, ptr %tsdn.addr, align 8
  store ptr %mutex, ptr %mutex.addr, align 8
  %0 = load ptr, ptr %tsdn.addr, align 8
  store ptr %0, ptr %tsdn.addr.i4, align 8
  %1 = load ptr, ptr %tsdn.addr.i4, align 8
  store ptr %1, ptr %tsdn.addr.i13, align 8
  %2 = load ptr, ptr %tsdn.addr.i13, align 8
  %cmp.i = icmp eq ptr %2, null
  br i1 %cmp.i, label %if.then.i10, label %if.end.i7

if.then.i10:                                      ; preds = %entry
  store ptr null, ptr %retval.i3, align 8
  br label %tsdn_witness_tsdp_get.exit11

if.end.i7:                                        ; preds = %entry
  %3 = load ptr, ptr %tsdn.addr.i4, align 8
  store ptr %3, ptr %tsdn.addr.i16, align 8
  %4 = load ptr, ptr %tsdn.addr.i16, align 8
  store ptr %4, ptr %tsd.i5, align 8
  %5 = load ptr, ptr %tsd.i5, align 8
  store ptr %5, ptr %tsd.addr.i, align 8
  %6 = load ptr, ptr %tsd.addr.i, align 8
  store ptr %6, ptr %tsd.addr.i24, align 8
  %7 = load ptr, ptr %tsd.addr.i24, align 8
  %state.i25 = getelementptr inbounds %struct.tsd_s, ptr %7, i32 0, i32 29
  %8 = load i8, ptr %state.i25, align 8
  store i8 %8, ptr %state.i, align 1
  %9 = load ptr, ptr %tsd.addr.i, align 8
  store ptr %9, ptr %tsd.addr.i27, align 8
  %10 = load ptr, ptr %tsd.addr.i27, align 8
  %cant_access_tsd_items_directly_use_a_getter_or_setter_witness_tsd.i28 = getelementptr inbounds %struct.tsd_s, ptr %10, i32 0, i32 35
  store ptr %cant_access_tsd_items_directly_use_a_getter_or_setter_witness_tsd.i28, ptr %retval.i3, align 8
  br label %tsdn_witness_tsdp_get.exit11

tsdn_witness_tsdp_get.exit11:                     ; preds = %if.end.i7, %if.then.i10
  %11 = load ptr, ptr %retval.i3, align 8
  %12 = load ptr, ptr %mutex.addr, align 8
  %13 = getelementptr inbounds %struct.malloc_mutex_s, ptr %12, i32 0, i32 0
  call void @witness_assert_not_owner(ptr noundef %11, ptr noundef %13)
  %14 = load ptr, ptr %mutex.addr, align 8
  %call1 = call zeroext i1 @malloc_mutex_trylock_final(ptr noundef %14)
  br i1 %call1, label %if.then, label %if.end

if.then:                                          ; preds = %tsdn_witness_tsdp_get.exit11
  %15 = load ptr, ptr %mutex.addr, align 8
  call void @malloc_mutex_lock_slow(ptr noundef %15)
  %16 = load ptr, ptr %mutex.addr, align 8
  %17 = getelementptr inbounds %struct.malloc_mutex_s, ptr %16, i32 0, i32 0
  %locked = getelementptr inbounds %struct.anon, ptr %17, i32 0, i32 2
  store ptr %locked, ptr %a.addr.i, align 8
  store i8 1, ptr %val.addr.i, align 1
  store i32 0, ptr %mo.addr.i, align 4
  %18 = load ptr, ptr %a.addr.i, align 8
  %19 = load i32, ptr %mo.addr.i, align 4
  store i32 %19, ptr %mo.addr.i30, align 4
  %20 = load i32, ptr %mo.addr.i30, align 4
  switch i32 %20, label %sw.epilog.i [
    i32 0, label %sw.bb.i
    i32 1, label %sw.bb1.i
    i32 2, label %sw.bb2.i
    i32 3, label %sw.bb3.i
    i32 4, label %sw.bb4.i
  ]

sw.bb.i:                                          ; preds = %if.then
  store i32 0, ptr %retval.i29, align 4
  br label %atomic_enum_to_builtin.exit

sw.bb1.i:                                         ; preds = %if.then
  store i32 2, ptr %retval.i29, align 4
  br label %atomic_enum_to_builtin.exit

sw.bb2.i:                                         ; preds = %if.then
  store i32 3, ptr %retval.i29, align 4
  br label %atomic_enum_to_builtin.exit

sw.bb3.i:                                         ; preds = %if.then
  store i32 4, ptr %retval.i29, align 4
  br label %atomic_enum_to_builtin.exit

sw.bb4.i:                                         ; preds = %if.then
  store i32 5, ptr %retval.i29, align 4
  br label %atomic_enum_to_builtin.exit

sw.epilog.i:                                      ; preds = %if.then
  unreachable

atomic_enum_to_builtin.exit:                      ; preds = %sw.bb4.i, %sw.bb3.i, %sw.bb2.i, %sw.bb1.i, %sw.bb.i
  %21 = load i32, ptr %retval.i29, align 4
  switch i32 %21, label %monotonic.i [
    i32 3, label %release.i
    i32 5, label %seqcst.i
  ]

monotonic.i:                                      ; preds = %atomic_enum_to_builtin.exit
  %22 = load i8, ptr %val.addr.i, align 1
  store atomic i8 %22, ptr %18 monotonic, align 1
  br label %atomic_store_b.exit

release.i:                                        ; preds = %atomic_enum_to_builtin.exit
  %23 = load i8, ptr %val.addr.i, align 1
  store atomic i8 %23, ptr %18 release, align 1
  br label %atomic_store_b.exit

seqcst.i:                                         ; preds = %atomic_enum_to_builtin.exit
  %24 = load i8, ptr %val.addr.i, align 1
  store atomic i8 %24, ptr %18 seq_cst, align 1
  br label %atomic_store_b.exit

atomic_store_b.exit:                              ; preds = %seqcst.i, %release.i, %monotonic.i
  br label %if.end

if.end:                                           ; preds = %atomic_store_b.exit, %tsdn_witness_tsdp_get.exit11
  %25 = load ptr, ptr %tsdn.addr, align 8
  %26 = load ptr, ptr %mutex.addr, align 8
  call void @mutex_owner_stats_update(ptr noundef %25, ptr noundef %26)
  %27 = load ptr, ptr %tsdn.addr, align 8
  store ptr %27, ptr %tsdn.addr.i, align 8
  %28 = load ptr, ptr %tsdn.addr.i, align 8
  store ptr %28, ptr %tsdn.addr.i14, align 8
  %29 = load ptr, ptr %tsdn.addr.i14, align 8
  %cmp.i15 = icmp eq ptr %29, null
  br i1 %cmp.i15, label %if.then.i, label %if.end.i

if.then.i:                                        ; preds = %if.end
  store ptr null, ptr %retval.i, align 8
  br label %tsdn_witness_tsdp_get.exit

if.end.i:                                         ; preds = %if.end
  %30 = load ptr, ptr %tsdn.addr.i, align 8
  store ptr %30, ptr %tsdn.addr.i17, align 8
  %31 = load ptr, ptr %tsdn.addr.i17, align 8
  store ptr %31, ptr %tsd.i, align 8
  %32 = load ptr, ptr %tsd.i, align 8
  store ptr %32, ptr %tsd.addr.i18, align 8
  %33 = load ptr, ptr %tsd.addr.i18, align 8
  store ptr %33, ptr %tsd.addr.i22, align 8
  %34 = load ptr, ptr %tsd.addr.i22, align 8
  %state.i23 = getelementptr inbounds %struct.tsd_s, ptr %34, i32 0, i32 29
  %35 = load i8, ptr %state.i23, align 8
  store i8 %35, ptr %state.i19, align 1
  %36 = load ptr, ptr %tsd.addr.i18, align 8
  store ptr %36, ptr %tsd.addr.i26, align 8
  %37 = load ptr, ptr %tsd.addr.i26, align 8
  %cant_access_tsd_items_directly_use_a_getter_or_setter_witness_tsd.i = getelementptr inbounds %struct.tsd_s, ptr %37, i32 0, i32 35
  store ptr %cant_access_tsd_items_directly_use_a_getter_or_setter_witness_tsd.i, ptr %retval.i, align 8
  br label %tsdn_witness_tsdp_get.exit

tsdn_witness_tsdp_get.exit:                       ; preds = %if.end.i, %if.then.i
  %38 = load ptr, ptr %retval.i, align 8
  %39 = load ptr, ptr %mutex.addr, align 8
  %40 = getelementptr inbounds %struct.malloc_mutex_s, ptr %39, i32 0, i32 0
  call void @witness_lock(ptr noundef %38, ptr noundef %40)
  ret void
}

; Function Attrs: nounwind uwtable
define internal i32 @stats_mutexes_prof_recent_alloc_num_spin_acq_ctl(ptr noundef %tsd, ptr noundef %mib, i64 noundef %miblen, ptr noundef %oldp, ptr noundef %oldlenp, ptr noundef %newp, i64 noundef %newlen) #0 {
entry:
  %tsd.addr.i13 = alloca ptr, align 8
  %tsd.addr.i = alloca ptr, align 8
  %tsd.addr = alloca ptr, align 8
  %mib.addr = alloca ptr, align 8
  %miblen.addr = alloca i64, align 8
  %oldp.addr = alloca ptr, align 8
  %oldlenp.addr = alloca ptr, align 8
  %newp.addr = alloca ptr, align 8
  %newlen.addr = alloca i64, align 8
  %ret = alloca i32, align 4
  %oldval = alloca i64, align 8
  %copylen = alloca i64, align 8
  store ptr %tsd, ptr %tsd.addr, align 8
  store ptr %mib, ptr %mib.addr, align 8
  store i64 %miblen, ptr %miblen.addr, align 8
  store ptr %oldp, ptr %oldp.addr, align 8
  store ptr %oldlenp, ptr %oldlenp.addr, align 8
  store ptr %newp, ptr %newp.addr, align 8
  store i64 %newlen, ptr %newlen.addr, align 8
  %0 = load ptr, ptr %tsd.addr, align 8
  store ptr %0, ptr %tsd.addr.i13, align 8
  %1 = load ptr, ptr %tsd.addr.i13, align 8
  call void @malloc_mutex_lock(ptr noundef %1, ptr noundef @ctl_mtx)
  br label %do.body

do.body:                                          ; preds = %entry
  %2 = load ptr, ptr %newp.addr, align 8
  %cmp = icmp ne ptr %2, null
  br i1 %cmp, label %if.then, label %lor.lhs.false

lor.lhs.false:                                    ; preds = %do.body
  %3 = load i64, ptr %newlen.addr, align 8
  %cmp1 = icmp ne i64 %3, 0
  br i1 %cmp1, label %if.then, label %if.end

if.then:                                          ; preds = %lor.lhs.false, %do.body
  store i32 1, ptr %ret, align 4
  br label %label_return

if.end:                                           ; preds = %lor.lhs.false
  br label %do.end

do.end:                                           ; preds = %if.end
  %4 = load ptr, ptr @ctl_stats, align 8
  %mutex_prof_data = getelementptr inbounds %struct.ctl_stats_s, ptr %4, i32 0, i32 8
  %arrayidx = getelementptr inbounds [9 x %struct.mutex_prof_data_t], ptr %mutex_prof_data, i64 0, i64 6
  %n_spin_acquired = getelementptr inbounds %struct.mutex_prof_data_t, ptr %arrayidx, i32 0, i32 3
  %5 = load i64, ptr %n_spin_acquired, align 8
  store i64 %5, ptr %oldval, align 8
  br label %do.body2

do.body2:                                         ; preds = %do.end
  %6 = load ptr, ptr %oldp.addr, align 8
  %cmp3 = icmp ne ptr %6, null
  br i1 %cmp3, label %land.lhs.true, label %if.end10

land.lhs.true:                                    ; preds = %do.body2
  %7 = load ptr, ptr %oldlenp.addr, align 8
  %cmp4 = icmp ne ptr %7, null
  br i1 %cmp4, label %if.then5, label %if.end10

if.then5:                                         ; preds = %land.lhs.true
  %8 = load ptr, ptr %oldlenp.addr, align 8
  %9 = load i64, ptr %8, align 8
  %cmp6 = icmp ne i64 %9, 8
  br i1 %cmp6, label %if.then7, label %if.end9

if.then7:                                         ; preds = %if.then5
  %10 = load ptr, ptr %oldlenp.addr, align 8
  %11 = load i64, ptr %10, align 8
  %cmp8 = icmp ule i64 8, %11
  br i1 %cmp8, label %cond.true, label %cond.false

cond.true:                                        ; preds = %if.then7
  br label %cond.end

cond.false:                                       ; preds = %if.then7
  %12 = load ptr, ptr %oldlenp.addr, align 8
  %13 = load i64, ptr %12, align 8
  br label %cond.end

cond.end:                                         ; preds = %cond.false, %cond.true
  %cond = phi i64 [ 8, %cond.true ], [ %13, %cond.false ]
  store i64 %cond, ptr %copylen, align 8
  %14 = load ptr, ptr %oldp.addr, align 8
  %15 = load i64, ptr %copylen, align 8
  call void @llvm.memcpy.p0.p0.i64(ptr align 1 %14, ptr align 1 %oldval, i64 %15, i1 false)
  %16 = load i64, ptr %copylen, align 8
  %17 = load ptr, ptr %oldlenp.addr, align 8
  store i64 %16, ptr %17, align 8
  store i32 22, ptr %ret, align 4
  br label %label_return

if.end9:                                          ; preds = %if.then5
  %18 = load i64, ptr %oldval, align 8
  %19 = load ptr, ptr %oldp.addr, align 8
  store i64 %18, ptr %19, align 8
  br label %if.end10

if.end10:                                         ; preds = %if.end9, %land.lhs.true, %do.body2
  br label %do.end11

do.end11:                                         ; preds = %if.end10
  store i32 0, ptr %ret, align 4
  br label %label_return

label_return:                                     ; preds = %do.end11, %cond.end, %if.then
  %20 = load ptr, ptr %tsd.addr, align 8
  store ptr %20, ptr %tsd.addr.i, align 8
  %21 = load ptr, ptr %tsd.addr.i, align 8
  call void @malloc_mutex_unlock(ptr noundef %21, ptr noundef @ctl_mtx)
  %22 = load i32, ptr %ret, align 4
  ret i32 %22
}